; Function Attrs: mustprogress uwtable
define internal fastcc void @"_ZNK5arrow6detail14ContinueFutureclINS_6FutureISt6vectorINS_6ResultINS_8internal5EmptyEEESaIS8_EEE17PassthruOnFailureIZNS_11AllFinishedERKS4_INS3_IS7_EESaISD_EEE3$_0EEJRKNS_6StatusEES8_SD_EENSt9enable_ifIXaaaaaantsr3std7is_voidIT1_EE5valuentsr9is_futureISO_EE5valuesrT2_8is_emptyntsr3std7is_sameISO_SK_EE5valueEvE4typeESP_OT_DpOT0_"(ptr noundef nonnull %0, ptr noundef nonnull align 8 dereferenceable(8) %1) unnamed_addr #0 align 2 personality ptr @__gxx_personality_v0 {
  %3 = alloca %"class.arrow::Status", align 8
  %4 = alloca %"class.arrow::Result", align 8
  call void @llvm.lifetime.start.p0(i64 16, ptr nonnull %4) #24
  call void @_ZN5arrow6ResultINS_8internal5EmptyEEC2ERKNS_6StatusE(ptr noundef nonnull align 8 dereferenceable(9) %4, ptr noundef nonnull align 8 dereferenceable(8) %1) #24
  call void @llvm.experimental.noalias.scope.decl(metadata !220)
  %5 = load ptr, ptr %4, align 8, !tbaa !71, !noalias !220
  %6 = icmp eq ptr %5, null
  br i1 %6, label %10, label %7, !prof !77

7:                                                ; preds = %2
  invoke void @_ZN5arrow8internal19UninitializedResultEv(ptr dead_on_unwind nonnull writable sret(%"class.arrow::Status") align 8 %3)
          to label %.noexc unwind label %24

.noexc:                                           ; preds = %7
  %8 = load ptr, ptr %4, align 8, !tbaa !71, !noalias !220
  %9 = load ptr, ptr %3, align 8, !tbaa !71, !alias.scope !220
  store ptr %9, ptr %4, align 8, !tbaa !71, !noalias !220
  br label %10

10:                                               ; preds = %.noexc, %2
  %storemerge.i = phi ptr [ %8, %.noexc ], [ null, %2 ]
  store ptr %storemerge.i, ptr %3, align 8, !tbaa !71, !alias.scope !220
  invoke void @_ZN5arrow6FutureINS_8internal5EmptyEE12MarkFinishedIS2_vEEvNS_6StatusE(ptr noundef nonnull align 8 dereferenceable(16) %0, ptr noundef nonnull %3)
          to label %11 unwind label %26

11:                                               ; preds = %10
  %12 = load ptr, ptr %3, align 8, !tbaa !71
  %.not.i = icmp eq ptr %12, null
  br i1 %.not.i, label %_ZN5arrow6StatusD2Ev.exit, label %13, !prof !77

13:                                               ; preds = %11
  %14 = getelementptr inbounds nuw i8, ptr %12, i64 1
  %15 = load i8, ptr %14, align 1, !tbaa !78, !range !24, !noundef !25
  %16 = trunc nuw i8 %15 to i1
  br i1 %16, label %_ZN5arrow6StatusD2Ev.exit, label %17

17:                                               ; preds = %13
  call void @_ZN5arrow6Status11DeleteStateEv(ptr noundef nonnull align 8 dereferenceable(8) %3) #24
  br label %_ZN5arrow6StatusD2Ev.exit

_ZN5arrow6StatusD2Ev.exit:                        ; preds = %11, %13, %17
  %18 = load ptr, ptr %4, align 8, !tbaa !71
  %.not.i.i = icmp eq ptr %18, null
  br i1 %.not.i.i, label %_ZN5arrow6ResultINS_8internal5EmptyEED2Ev.exit, label %19, !prof !77

19:                                               ; preds = %_ZN5arrow6StatusD2Ev.exit
  %20 = getelementptr inbounds nuw i8, ptr %18, i64 1
  %21 = load i8, ptr %20, align 1, !tbaa !78, !range !24, !noundef !25
  %22 = trunc nuw i8 %21 to i1
  br i1 %22, label %_ZN5arrow6ResultINS_8internal5EmptyEED2Ev.exit, label %23

23:                                               ; preds = %19
  call void @_ZN5arrow6Status11DeleteStateEv(ptr noundef nonnull align 8 dereferenceable(9) %4) #24
  br label %_ZN5arrow6ResultINS_8internal5EmptyEED2Ev.exit

_ZN5arrow6ResultINS_8internal5EmptyEED2Ev.exit:   ; preds = %_ZN5arrow6StatusD2Ev.exit, %19, %23
  call void @llvm.lifetime.end.p0(i64 16, ptr nonnull %4) #24
  ret void

24:                                               ; preds = %7
  %25 = landingpad { ptr, i32 }
          cleanup
  br label %_ZN5arrow6StatusD2Ev.exit6

26:                                               ; preds = %10
  %27 = landingpad { ptr, i32 }
          cleanup
  %28 = load ptr, ptr %3, align 8, !tbaa !71
  %.not.i5 = icmp eq ptr %28, null
  br i1 %.not.i5, label %_ZN5arrow6StatusD2Ev.exit6, label %29, !prof !77

29:                                               ; preds = %26
  %30 = getelementptr inbounds nuw i8, ptr %28, i64 1
  %31 = load i8, ptr %30, align 1, !tbaa !78, !range !24, !noundef !25
  %32 = trunc nuw i8 %31 to i1
  br i1 %32, label %_ZN5arrow6StatusD2Ev.exit6, label %33

33:                                               ; preds = %29
  call void @_ZN5arrow6Status11DeleteStateEv(ptr noundef nonnull align 8 dereferenceable(8) %3) #24
  br label %_ZN5arrow6StatusD2Ev.exit6

_ZN5arrow6StatusD2Ev.exit6:                       ; preds = %33, %29, %26, %24
  %.pn = phi { ptr, i32 } [ %25, %24 ], [ %27, %26 ], [ %27, %29 ], [ %27, %33 ]
  %34 = load ptr, ptr %4, align 8, !tbaa !71
  %.not.i.i7 = icmp eq ptr %34, null
  br i1 %.not.i.i7, label %_ZN5arrow6ResultINS_8internal5EmptyEED2Ev.exit8, label %35, !prof !77

35:                                               ; preds = %_ZN5arrow6StatusD2Ev.exit6
  %36 = getelementptr inbounds nuw i8, ptr %34, i64 1
  %37 = load i8, ptr %36, align 1, !tbaa !78, !range !24, !noundef !25
  %38 = trunc nuw i8 %37 to i1
  br i1 %38, label %_ZN5arrow6ResultINS_8internal5EmptyEED2Ev.exit8, label %39

39:                                               ; preds = %35
  call void @_ZN5arrow6Status11DeleteStateEv(ptr noundef nonnull align 8 dereferenceable(9) %4) #24
  br label %_ZN5arrow6ResultINS_8internal5EmptyEED2Ev.exit8

_ZN5arrow6ResultINS_8internal5EmptyEED2Ev.exit8:  ; preds = %_ZN5arrow6StatusD2Ev.exit6, %35, %39
  call void @llvm.lifetime.end.p0(i64 16, ptr nonnull %4) #24
  resume { ptr, i32 } %.pn
}